target datalayout = "e-m:e-p270:32:32-p271:32:32-p272:64:64-i64:64-i128:128-f80:128-n8:16:32:64-S128"
target triple = "x86_64-pc-linux-gnu"

%"class.std::mutex" = type { %"class.std::__mutex_base" }
%"class.std::__mutex_base" = type { %union.pthread_mutex_t }
%union.pthread_mutex_t = type { %struct.__pthread_mutex_s }
%struct.__pthread_mutex_s = type { i32, i32, i32, i32, i32, i16, i16, %struct.__pthread_internal_list }
%struct.__pthread_internal_list = type { ptr, ptr }
%"class.std::lock_guard" = type { ptr }
%"struct.Imf_3_4::ostream_holder" = type { %"class.std::mutex", i64, ptr }

@.str.3 = private unnamed_addr constant [37 x i8] c"Unable to seek to desired offset %lu\00", align 1
@.str.4 = private unnamed_addr constant [50 x i8] c"Stream interface request to write block too large\00", align 1

; Function Attrs: inlinehint mustprogress nounwind uwtable
define internal noundef i32 @_ZL18__gthread_active_pv() #11 {
  ret i32 1
}

; Function Attrs: inlinehint mustprogress nounwind uwtable
define internal noundef i32 @_ZL22__gthread_mutex_unlockP15pthread_mutex_t(ptr noundef %0) #11 {
  %2 = alloca i32, align 4
  %3 = alloca ptr, align 8
  store ptr %0, ptr %3, align 8, !tbaa !33
  %4 = call noundef i32 @_ZL18__gthread_active_pv()
  %5 = icmp ne i32 %4, 0
  br i1 %5, label %6, label %9

6:                                                ; preds = %1
  %7 = load ptr, ptr %3, align 8, !tbaa !33
  %8 = call i32 @pthread_mutex_unlock(ptr noundef %7) #15
  store i32 %8, ptr %2, align 4
  br label %10

9:                                                ; preds = %1
  store i32 0, ptr %2, align 4
  br label %10

10:                                               ; preds = %9, %6
  %11 = load i32, ptr %2, align 4
  ret i32 %11
}

; Function Attrs: inlinehint mustprogress uwtable
define internal noundef i32 @_ZL20__gthread_mutex_lockP15pthread_mutex_t(ptr noundef %0) #9 {
  %2 = alloca i32, align 4
  %3 = alloca ptr, align 8
  store ptr %0, ptr %3, align 8, !tbaa !33
  %4 = call noundef i32 @_ZL18__gthread_active_pv()
  %5 = icmp ne i32 %4, 0
  br i1 %5, label %6, label %9

6:                                                ; preds = %1
  %7 = load ptr, ptr %3, align 8, !tbaa !33
  %8 = call i32 @pthread_mutex_lock(ptr noundef %7) #15
  store i32 %8, ptr %2, align 4
  br label %10

9:                                                ; preds = %1
  store i32 0, ptr %2, align 4
  br label %10

10:                                               ; preds = %9, %6
  %11 = load i32, ptr %2, align 4
  ret i32 %11
}

; Function Attrs: mustprogress uwtable
define linkonce_odr hidden void @_ZNSt5mutex6unlockEv(ptr noundef nonnull align 8 dereferenceable(40) %0) #0 comdat align 2 {
  %2 = alloca ptr, align 8
  store ptr %0, ptr %2, align 8, !tbaa !47
  %3 = load ptr, ptr %2, align 8
  %4 = getelementptr inbounds nuw %"class.std::__mutex_base", ptr %3, i32 0, i32 0
  %5 = call noundef i32 @_ZL22__gthread_mutex_unlockP15pthread_mutex_t(ptr noundef %4)
  ret void
}

; Function Attrs: mustprogress uwtable
define linkonce_odr hidden void @_ZNSt5mutex4lockEv(ptr noundef nonnull align 8 dereferenceable(40) %0) #0 comdat align 2 {
  %2 = alloca ptr, align 8
  %3 = alloca i32, align 4
  store ptr %0, ptr %2, align 8, !tbaa !47
  %4 = load ptr, ptr %2, align 8
  call void @llvm.lifetime.start.p0(i64 4, ptr %3) #15
  %5 = getelementptr inbounds nuw %"class.std::__mutex_base", ptr %4, i32 0, i32 0
  %6 = call noundef i32 @_ZL20__gthread_mutex_lockP15pthread_mutex_t(ptr noundef %5)
  store i32 %6, ptr %3, align 4, !tbaa !39
  %7 = load i32, ptr %3, align 4, !tbaa !39
  %8 = icmp ne i32 %7, 0
  br i1 %8, label %9, label %11

9:                                                ; preds = %1
  %10 = load i32, ptr %3, align 4, !tbaa !39
  call void @_ZSt20__throw_system_errori(i32 noundef %10) #17
  unreachable

11:                                               ; preds = %1
  call void @llvm.lifetime.end.p0(i64 4, ptr %3) #15
  ret void
}

; Function Attrs: mustprogress nounwind uwtable
define linkonce_odr hidden void @_ZNSt10lock_guardISt5mutexED2Ev(ptr noundef nonnull align 8 dereferenceable(8) %0) unnamed_addr #2 comdat align 2 personality ptr @__gxx_personality_v0 {
  %2 = alloca ptr, align 8
  store ptr %0, ptr %2, align 8, !tbaa !56
  %3 = load ptr, ptr %2, align 8
  %4 = getelementptr inbounds nuw %"class.std::lock_guard", ptr %3, i32 0, i32 0
  %5 = load ptr, ptr %4, align 8, !tbaa !58
  invoke void @_ZNSt5mutex6unlockEv(ptr noundef nonnull align 8 dereferenceable(40) %5)
          to label %6 unwind label %7

6:                                                ; preds = %1
  ret void

7:                                                ; preds = %1
  %8 = landingpad { ptr, i32 }
          catch ptr null
  %9 = extractvalue { ptr, i32 } %8, 0
  call void @__clang_call_terminate(ptr %9) #16
  unreachable
}

; Function Attrs: mustprogress uwtable
define linkonce_odr hidden void @_ZNSt10lock_guardISt5mutexEC2ERS0_(ptr noundef nonnull align 8 dereferenceable(8) %0, ptr noundef nonnull align 8 dereferenceable(40) %1) unnamed_addr #0 comdat align 2 {
  %3 = alloca ptr, align 8
  %4 = alloca ptr, align 8
  store ptr %0, ptr %3, align 8, !tbaa !56
  store ptr %1, ptr %4, align 8, !tbaa !47
  %5 = load ptr, ptr %3, align 8
  %6 = getelementptr inbounds nuw %"class.std::lock_guard", ptr %5, i32 0, i32 0
  %7 = load ptr, ptr %4, align 8, !tbaa !47
  store ptr %7, ptr %6, align 8, !tbaa !47
  %8 = getelementptr inbounds nuw %"class.std::lock_guard", ptr %5, i32 0, i32 0
  %9 = load ptr, ptr %8, align 8, !tbaa !58
  call void @_ZNSt5mutex4lockEv(ptr noundef nonnull align 8 dereferenceable(40) %9)
  ret void
}

; Function Attrs: mustprogress uwtable
define internal noundef i64 @_ZN7Imf_3_4L13ostream_writeEPK19_priv_exr_context_tPvPKvmmPFiS2_iPKczE(ptr noundef %0, ptr noundef %1, ptr noundef %2, i64 noundef %3, i64 noundef %4, ptr noundef %5) #0 personality ptr @__gxx_personality_v0 {
  %7 = alloca i64, align 8
  %8 = alloca ptr, align 8
  %9 = alloca ptr, align 8
  %10 = alloca ptr, align 8
  %11 = alloca i64, align 8
  %12 = alloca i64, align 8
  %13 = alloca ptr, align 8
  %14 = alloca ptr, align 8
  %15 = alloca i32, align 4
  %16 = alloca %"class.std::lock_guard", align 8
  %17 = alloca ptr, align 8
  %18 = alloca i32, align 4
  %19 = alloca i64, align 8
  store ptr %0, ptr %8, align 8, !tbaa !31
  store ptr %1, ptr %9, align 8, !tbaa !33
  store ptr %2, ptr %10, align 8, !tbaa !33
  store i64 %3, ptr %11, align 8, !tbaa !34
  store i64 %4, ptr %12, align 8, !tbaa !34
  store ptr %5, ptr %13, align 8, !tbaa !33
  call void @llvm.lifetime.start.p0(i64 8, ptr %14) #15
  %20 = load ptr, ptr %9, align 8, !tbaa !33
  store ptr %20, ptr %14, align 8, !tbaa !42
  %21 = load i64, ptr %11, align 8, !tbaa !34
  %22 = icmp ugt i64 %21, 2147483647
  br i1 %22, label %23, label %27

23:                                               ; preds = %6
  %24 = load ptr, ptr %13, align 8, !tbaa !33
  %25 = load ptr, ptr %8, align 8, !tbaa !31
  %26 = call noundef i32 (ptr, i32, ptr, ...) %24(ptr noundef %25, i32 noundef 10, ptr noundef @.str.4)
  store i64 -1, ptr %7, align 8
  store i32 1, ptr %15, align 4
  br label %126

27:                                               ; preds = %6
  call void @llvm.lifetime.start.p0(i64 8, ptr %16) #15
  %28 = load ptr, ptr %14, align 8, !tbaa !42
  %29 = getelementptr inbounds nuw %"struct.Imf_3_4::ostream_holder", ptr %28, i32 0, i32 0
  call void @_ZNSt10lock_guardISt5mutexEC2ERS0_(ptr noundef nonnull align 8 dereferenceable(8) %16, ptr noundef nonnull align 8 dereferenceable(40) %29)
  %30 = load i64, ptr %12, align 8, !tbaa !34
  %31 = load ptr, ptr %14, align 8, !tbaa !42
  %32 = getelementptr inbounds nuw %"struct.Imf_3_4::ostream_holder", ptr %31, i32 0, i32 1
  %33 = load i64, ptr %32, align 8, !tbaa !44
  %34 = icmp ne i64 %30, %33
  br i1 %34, label %35, label %70

35:                                               ; preds = %27
  %36 = load ptr, ptr %14, align 8, !tbaa !42
  %37 = getelementptr inbounds nuw %"struct.Imf_3_4::ostream_holder", ptr %36, i32 0, i32 2
  %38 = load ptr, ptr %37, align 8, !tbaa !46
  %39 = load i64, ptr %12, align 8, !tbaa !34
  %40 = load ptr, ptr %38, align 8, !tbaa !17
  %41 = getelementptr inbounds ptr, ptr %40, i64 4
  %42 = load ptr, ptr %41, align 8
  invoke void %42(ptr noundef nonnull align 8 dereferenceable(40) %38, i64 noundef %39)
          to label %43 unwind label %65

43:                                               ; preds = %35
  %44 = load ptr, ptr %14, align 8, !tbaa !42
  %45 = getelementptr inbounds nuw %"struct.Imf_3_4::ostream_holder", ptr %44, i32 0, i32 2
  %46 = load ptr, ptr %45, align 8, !tbaa !46
  %47 = load ptr, ptr %46, align 8, !tbaa !17
  %48 = getelementptr inbounds ptr, ptr %47, i64 3
  %49 = load ptr, ptr %48, align 8
  %50 = invoke noundef i64 %49(ptr noundef nonnull align 8 dereferenceable(40) %46)
          to label %51 unwind label %65

51:                                               ; preds = %43
  %52 = load ptr, ptr %14, align 8, !tbaa !42
  %53 = getelementptr inbounds nuw %"struct.Imf_3_4::ostream_holder", ptr %52, i32 0, i32 1
  store i64 %50, ptr %53, align 8, !tbaa !44
  %54 = load i64, ptr %12, align 8, !tbaa !34
  %55 = load ptr, ptr %14, align 8, !tbaa !42
  %56 = getelementptr inbounds nuw %"struct.Imf_3_4::ostream_holder", ptr %55, i32 0, i32 1
  %57 = load i64, ptr %56, align 8, !tbaa !44
  %58 = icmp ne i64 %54, %57
  br i1 %58, label %59, label %69

59:                                               ; preds = %51
  %60 = load ptr, ptr %13, align 8, !tbaa !33
  %61 = load ptr, ptr %8, align 8, !tbaa !31
  %62 = load i64, ptr %12, align 8, !tbaa !34
  %63 = invoke noundef i32 (ptr, i32, ptr, ...) %60(ptr noundef %61, i32 noundef 10, ptr noundef @.str.3, i64 noundef %62)
          to label %64 unwind label %65

64:                                               ; preds = %59
  store i64 -1, ptr %7, align 8
  store i32 1, ptr %15, align 4
  br label %124

65:                                               ; preds = %59, %43, %35
  %66 = landingpad { ptr, i32 }
          cleanup
  %67 = extractvalue { ptr, i32 } %66, 0
  store ptr %67, ptr %17, align 8
  %68 = extractvalue { ptr, i32 } %66, 1
  store i32 %68, ptr %18, align 4
  br label %125

69:                                               ; preds = %51
  br label %70

70:                                               ; preds = %69, %27
  call void @llvm.lifetime.start.p0(i64 8, ptr %19) #15
  %71 = load ptr, ptr %14, align 8, !tbaa !42
  %72 = getelementptr inbounds nuw %"struct.Imf_3_4::ostream_holder", ptr %71, i32 0, i32 1
  %73 = load i64, ptr %72, align 8, !tbaa !44
  store i64 %73, ptr %19, align 8, !tbaa !34
  %74 = load ptr, ptr %14, align 8, !tbaa !42
  %75 = getelementptr inbounds nuw %"struct.Imf_3_4::ostream_holder", ptr %74, i32 0, i32 2
  %76 = load ptr, ptr %75, align 8, !tbaa !46
  %77 = load ptr, ptr %10, align 8, !tbaa !33
  %78 = load i64, ptr %11, align 8, !tbaa !34
  %79 = trunc i64 %78 to i32
  %80 = load ptr, ptr %76, align 8, !tbaa !17
  %81 = getelementptr inbounds ptr, ptr %80, i64 2
  %82 = load ptr, ptr %81, align 8
  invoke void %82(ptr noundef nonnull align 8 dereferenceable(40) %76, ptr noundef %77, i32 noundef %79)
          to label %83 unwind label %99

83:                                               ; preds = %70
  %84 = load ptr, ptr %14, align 8, !tbaa !42
  %85 = getelementptr inbounds nuw %"struct.Imf_3_4::ostream_holder", ptr %84, i32 0, i32 2
  %86 = load ptr, ptr %85, align 8, !tbaa !46
  %87 = load ptr, ptr %86, align 8, !tbaa !17
  %88 = getelementptr inbounds ptr, ptr %87, i64 3
  %89 = load ptr, ptr %88, align 8
  %90 = invoke noundef i64 %89(ptr noundef nonnull align 8 dereferenceable(40) %86)
          to label %91 unwind label %99

91:                                               ; preds = %83
  %92 = load ptr, ptr %14, align 8, !tbaa !42
  %93 = getelementptr inbounds nuw %"struct.Imf_3_4::ostream_holder", ptr %92, i32 0, i32 1
  store i64 %90, ptr %93, align 8, !tbaa !44
  %94 = load ptr, ptr %14, align 8, !tbaa !42
  %95 = getelementptr inbounds nuw %"struct.Imf_3_4::ostream_holder", ptr %94, i32 0, i32 1
  %96 = load i64, ptr %95, align 8, !tbaa !44
  %97 = load i64, ptr %19, align 8, !tbaa !34
  %98 = sub i64 %96, %97
  store i64 %98, ptr %19, align 8, !tbaa !34
  br label %112

99:                                               ; preds = %83, %70
  %100 = landingpad { ptr, i32 }
          catch ptr null
  %101 = extractvalue { ptr, i32 } %100, 0
  store ptr %101, ptr %17, align 8
  %102 = extractvalue { ptr, i32 } %100, 1
  store i32 %102, ptr %18, align 4
  br label %103

103:                                              ; preds = %99
  %104 = load ptr, ptr %17, align 8
  %105 = call ptr @__cxa_begin_catch(ptr %104) #15
  %106 = load ptr, ptr %13, align 8, !tbaa !33
  %107 = load ptr, ptr %8, align 8, !tbaa !31
  %108 = load i64, ptr %12, align 8, !tbaa !34
  %109 = invoke noundef i32 (ptr, i32, ptr, ...) %106(ptr noundef %107, i32 noundef 10, ptr noundef @.str.3, i64 noundef %108)
          to label %110 unwind label %114

110:                                              ; preds = %103
  store i64 -1, ptr %19, align 8, !tbaa !34
  invoke void @__cxa_end_catch()
          to label %111 unwind label %118

111:                                              ; preds = %110
  br label %112

112:                                              ; preds = %111, %91
  %113 = load i64, ptr %19, align 8, !tbaa !34
  store i64 %113, ptr %7, align 8
  store i32 1, ptr %15, align 4
  call void @llvm.lifetime.end.p0(i64 8, ptr %19) #15
  br label %124

114:                                              ; preds = %103
  %115 = landingpad { ptr, i32 }
          cleanup
  %116 = extractvalue { ptr, i32 } %115, 0
  store ptr %116, ptr %17, align 8
  %117 = extractvalue { ptr, i32 } %115, 1
  store i32 %117, ptr %18, align 4
  invoke void @__cxa_end_catch()
          to label %122 unwind label %133

118:                                              ; preds = %110
  %119 = landingpad { ptr, i32 }
          cleanup
  %120 = extractvalue { ptr, i32 } %119, 0
  store ptr %120, ptr %17, align 8
  %121 = extractvalue { ptr, i32 } %119, 1
  store i32 %121, ptr %18, align 4
  br label %123

122:                                              ; preds = %114
  br label %123

123:                                              ; preds = %122, %118
  call void @llvm.lifetime.end.p0(i64 8, ptr %19) #15
  br label %125

124:                                              ; preds = %112, %64
  call void @_ZNSt10lock_guardISt5mutexED2Ev(ptr noundef nonnull align 8 dereferenceable(8) %16) #15
  call void @llvm.lifetime.end.p0(i64 8, ptr %16) #15
  br label %126

125:                                              ; preds = %123, %65
  call void @_ZNSt10lock_guardISt5mutexED2Ev(ptr noundef nonnull align 8 dereferenceable(8) %16) #15
  call void @llvm.lifetime.end.p0(i64 8, ptr %16) #15
  call void @llvm.lifetime.end.p0(i64 8, ptr %14) #15
  br label %128

126:                                              ; preds = %124, %23
  call void @llvm.lifetime.end.p0(i64 8, ptr %14) #15
  %127 = load i64, ptr %7, align 8
  ret i64 %127

128:                                              ; preds = %125
  %129 = load ptr, ptr %17, align 8
  %130 = load i32, ptr %18, align 4
  %131 = insertvalue { ptr, i32 } poison, ptr %129, 0
  %132 = insertvalue { ptr, i32 } %131, i32 %130, 1
  resume { ptr, i32 } %132

133:                                              ; preds = %114
  %134 = landingpad { ptr, i32 }
          catch ptr null
  %135 = extractvalue { ptr, i32 } %134, 0
  call void @__clang_call_terminate(ptr %135) #16
  unreachable
}