; Function Attrs: mustprogress uwtable
define internal noundef i64 @_ZN7Imf_3_4L13ostream_writeEPK19_priv_exr_context_tPvPKvmmPFiS2_iPKczE(ptr noundef %0, ptr noundef %1, ptr noundef %2, i64 noundef %3, i64 noundef %4, ptr noundef readonly captures(none) %5) #0 personality ptr @__gxx_personality_v0 {
  %7 = icmp ugt i64 %3, 2147483647
  br i1 %7, label %8, label %10

8:                                                ; preds = %6
  %9 = tail call noundef i32 (ptr, i32, ptr, ...) %5(ptr noundef %0, i32 noundef 10, ptr noundef nonnull @.str.4)
  br label %61

10:                                               ; preds = %6
  %11 = tail call noundef i32 @pthread_mutex_lock(ptr noundef nonnull align 8 dereferenceable(40) %1) #12
  %.not.i.i = icmp eq i32 %11, 0
  br i1 %.not.i.i, label %_ZNSt10lock_guardISt5mutexEC2ERS0_.exit, label %12

12:                                               ; preds = %10
  tail call void @_ZSt20__throw_system_errori(i32 noundef %11) #14
  unreachable

_ZNSt10lock_guardISt5mutexEC2ERS0_.exit:          ; preds = %10
  %13 = getelementptr inbounds nuw i8, ptr %1, i64 40
  %14 = load i64, ptr %13, align 8, !tbaa !29
  %.not = icmp eq i64 %4, %14
  br i1 %.not, label %32, label %15

15:                                               ; preds = %_ZNSt10lock_guardISt5mutexEC2ERS0_.exit
  %16 = getelementptr inbounds nuw i8, ptr %1, i64 48
  %17 = load ptr, ptr %16, align 8, !tbaa !26
  %18 = load ptr, ptr %17, align 8, !tbaa !18
  %19 = getelementptr inbounds nuw i8, ptr %18, i64 32
  %20 = load ptr, ptr %19, align 8
  invoke void %20(ptr noundef nonnull align 8 dereferenceable(40) %17, i64 noundef %4)
          to label %21 unwind label %30

21:                                               ; preds = %15
  %22 = load ptr, ptr %16, align 8, !tbaa !26
  %23 = load ptr, ptr %22, align 8, !tbaa !18
  %24 = getelementptr inbounds nuw i8, ptr %23, i64 24
  %25 = load ptr, ptr %24, align 8
  %26 = invoke noundef i64 %25(ptr noundef nonnull align 8 dereferenceable(40) %22)
          to label %27 unwind label %30

27:                                               ; preds = %21
  store i64 %26, ptr %13, align 8, !tbaa !29
  %.not38 = icmp eq i64 %4, %26
  br i1 %.not38, label %32, label %28

28:                                               ; preds = %27
  %29 = invoke noundef i32 (ptr, i32, ptr, ...) %5(ptr noundef %0, i32 noundef 10, ptr noundef nonnull @.str.3, i64 noundef %4)
          to label %57 unwind label %30

30:                                               ; preds = %28, %21, %15
  %31 = landingpad { ptr, i32 }
          cleanup
  br label %59

32:                                               ; preds = %27, %_ZNSt10lock_guardISt5mutexEC2ERS0_.exit
  %33 = getelementptr inbounds nuw i8, ptr %1, i64 48
  %34 = load ptr, ptr %33, align 8, !tbaa !26
  %35 = trunc nuw nsw i64 %3 to i32
  %36 = load ptr, ptr %34, align 8, !tbaa !18
  %37 = getelementptr inbounds nuw i8, ptr %36, i64 16
  %38 = load ptr, ptr %37, align 8
  invoke void %38(ptr noundef nonnull align 8 dereferenceable(40) %34, ptr noundef %2, i32 noundef %35)
          to label %39 unwind label %47

39:                                               ; preds = %32
  %40 = load ptr, ptr %33, align 8, !tbaa !26
  %41 = load ptr, ptr %40, align 8, !tbaa !18
  %42 = getelementptr inbounds nuw i8, ptr %41, i64 24
  %43 = load ptr, ptr %42, align 8
  %44 = invoke noundef i64 %43(ptr noundef nonnull align 8 dereferenceable(40) %40)
          to label %45 unwind label %47

45:                                               ; preds = %39
  store i64 %44, ptr %13, align 8, !tbaa !29
  %46 = sub i64 %44, %4
  br label %57

47:                                               ; preds = %39, %32
  %48 = landingpad { ptr, i32 }
          catch ptr null
  %49 = extractvalue { ptr, i32 } %48, 0
  %50 = tail call ptr @__cxa_begin_catch(ptr %49) #12
  %51 = invoke noundef i32 (ptr, i32, ptr, ...) %5(ptr noundef %0, i32 noundef 10, ptr noundef nonnull @.str.3, i64 noundef %4)
          to label %52 unwind label %53

52:                                               ; preds = %47
  invoke void @__cxa_end_catch()
          to label %57 unwind label %55

53:                                               ; preds = %47
  %54 = landingpad { ptr, i32 }
          cleanup
  invoke void @__cxa_end_catch()
          to label %59 unwind label %62

55:                                               ; preds = %52
  %56 = landingpad { ptr, i32 }
          cleanup
  br label %59

57:                                               ; preds = %45, %52, %28
  %.135 = phi i64 [ -1, %28 ], [ %46, %45 ], [ -1, %52 ]
  %58 = tail call noundef i32 @pthread_mutex_unlock(ptr noundef nonnull align 8 dereferenceable(40) %1) #12
  br label %61

59:                                               ; preds = %55, %53, %30
  %.pn40 = phi { ptr, i32 } [ %31, %30 ], [ %56, %55 ], [ %54, %53 ]
  %60 = tail call noundef i32 @pthread_mutex_unlock(ptr noundef nonnull align 8 dereferenceable(40) %1) #12
  resume { ptr, i32 } %.pn40

61:                                               ; preds = %57, %8
  %.034 = phi i64 [ -1, %8 ], [ %.135, %57 ]
  ret i64 %.034

62:                                               ; preds = %53
  %63 = landingpad { ptr, i32 }
          catch ptr null
  %64 = extractvalue { ptr, i32 } %63, 0
  tail call void @__clang_call_terminate(ptr %64) #13
  unreachable
}